target datalayout = "e-m:e-p270:32:32-p271:32:32-p272:64:64-i64:64-i128:128-f80:128-n8:16:32:64-S128"
target triple = "x86_64-pc-linux-gnu"

%struct.Cgt_Man_t_ = type { ptr, ptr, ptr, ptr, ptr, ptr, ptr, ptr, ptr, ptr, ptr, ptr, ptr, ptr, i32, i32, i32, i32, i32, i32, i32, i32, i64, i64, i64, i64, i64, i64, i64, i64, i64 }
%struct.Vec_Ptr_t_ = type { i32, i32, ptr }

; Function Attrs: inlinehint nounwind uwtable
define internal void @Vec_PtrFree(ptr noundef %0) #5 {
  %2 = alloca ptr, align 8
  store ptr %0, ptr %2, align 8, !tbaa !45
  %3 = load ptr, ptr %2, align 8, !tbaa !45
  %4 = getelementptr inbounds nuw %struct.Vec_Ptr_t_, ptr %3, i32 0, i32 2
  %5 = load ptr, ptr %4, align 8, !tbaa !49
  %6 = icmp ne ptr %5, null
  br i1 %6, label %7, label %13

7:                                                ; preds = %1
  %8 = load ptr, ptr %2, align 8, !tbaa !45
  %9 = getelementptr inbounds nuw %struct.Vec_Ptr_t_, ptr %8, i32 0, i32 2
  %10 = load ptr, ptr %9, align 8, !tbaa !49
  call void @free(ptr noundef %10) #9
  %11 = load ptr, ptr %2, align 8, !tbaa !45
  %12 = getelementptr inbounds nuw %struct.Vec_Ptr_t_, ptr %11, i32 0, i32 2
  store ptr null, ptr %12, align 8, !tbaa !49
  br label %14

13:                                               ; preds = %1
  br label %14

14:                                               ; preds = %13, %7
  %15 = load ptr, ptr %2, align 8, !tbaa !45
  %16 = icmp ne ptr %15, null
  br i1 %16, label %17, label %19

17:                                               ; preds = %14
  %18 = load ptr, ptr %2, align 8, !tbaa !45
  call void @free(ptr noundef %18) #9
  store ptr null, ptr %2, align 8, !tbaa !45
  br label %20

19:                                               ; preds = %14
  br label %20

20:                                               ; preds = %19, %17
  ret void
}

; Function Attrs: nounwind uwtable
define void @Cgt_ManClean(ptr noundef %0) #0 {
  %2 = alloca ptr, align 8
  store ptr %0, ptr %2, align 8, !tbaa !10
  %3 = load ptr, ptr %2, align 8, !tbaa !10
  %4 = getelementptr inbounds nuw %struct.Cgt_Man_t_, ptr %3, i32 0, i32 10
  %5 = load ptr, ptr %4, align 8, !tbaa !50
  %6 = icmp ne ptr %5, null
  br i1 %6, label %7, label %13

7:                                                ; preds = %1
  %8 = load ptr, ptr %2, align 8, !tbaa !10
  %9 = getelementptr inbounds nuw %struct.Cgt_Man_t_, ptr %8, i32 0, i32 10
  %10 = load ptr, ptr %9, align 8, !tbaa !50
  call void @Aig_ManStop(ptr noundef %10)
  %11 = load ptr, ptr %2, align 8, !tbaa !10
  %12 = getelementptr inbounds nuw %struct.Cgt_Man_t_, ptr %11, i32 0, i32 10
  store ptr null, ptr %12, align 8, !tbaa !50
  br label %13

13:                                               ; preds = %7, %1
  %14 = load ptr, ptr %2, align 8, !tbaa !10
  %15 = getelementptr inbounds nuw %struct.Cgt_Man_t_, ptr %14, i32 0, i32 11
  %16 = load ptr, ptr %15, align 8, !tbaa !51
  %17 = icmp ne ptr %16, null
  br i1 %17, label %18, label %24

18:                                               ; preds = %13
  %19 = load ptr, ptr %2, align 8, !tbaa !10
  %20 = getelementptr inbounds nuw %struct.Cgt_Man_t_, ptr %19, i32 0, i32 11
  %21 = load ptr, ptr %20, align 8, !tbaa !51
  call void @Cnf_DataFree(ptr noundef %21)
  %22 = load ptr, ptr %2, align 8, !tbaa !10
  %23 = getelementptr inbounds nuw %struct.Cgt_Man_t_, ptr %22, i32 0, i32 11
  store ptr null, ptr %23, align 8, !tbaa !51
  br label %24

24:                                               ; preds = %18, %13
  %25 = load ptr, ptr %2, align 8, !tbaa !10
  %26 = getelementptr inbounds nuw %struct.Cgt_Man_t_, ptr %25, i32 0, i32 12
  %27 = load ptr, ptr %26, align 8, !tbaa !52
  %28 = icmp ne ptr %27, null
  br i1 %28, label %29, label %35

29:                                               ; preds = %24
  %30 = load ptr, ptr %2, align 8, !tbaa !10
  %31 = getelementptr inbounds nuw %struct.Cgt_Man_t_, ptr %30, i32 0, i32 12
  %32 = load ptr, ptr %31, align 8, !tbaa !52
  call void @sat_solver_delete(ptr noundef %32)
  %33 = load ptr, ptr %2, align 8, !tbaa !10
  %34 = getelementptr inbounds nuw %struct.Cgt_Man_t_, ptr %33, i32 0, i32 12
  store ptr null, ptr %34, align 8, !tbaa !52
  br label %35

35:                                               ; preds = %29, %24
  %36 = load ptr, ptr %2, align 8, !tbaa !10
  %37 = getelementptr inbounds nuw %struct.Cgt_Man_t_, ptr %36, i32 0, i32 13
  %38 = load ptr, ptr %37, align 8, !tbaa !53
  %39 = icmp ne ptr %38, null
  br i1 %39, label %40, label %46

40:                                               ; preds = %35
  %41 = load ptr, ptr %2, align 8, !tbaa !10
  %42 = getelementptr inbounds nuw %struct.Cgt_Man_t_, ptr %41, i32 0, i32 13
  %43 = load ptr, ptr %42, align 8, !tbaa !53
  call void @Vec_PtrFree(ptr noundef %43)
  %44 = load ptr, ptr %2, align 8, !tbaa !10
  %45 = getelementptr inbounds nuw %struct.Cgt_Man_t_, ptr %44, i32 0, i32 13
  store ptr null, ptr %45, align 8, !tbaa !53
  br label %46

46:                                               ; preds = %40, %35
  ret void
}