; Function Attrs: nounwind uwtable
define void @Cgt_ManClean(ptr noundef captures(none) %0) local_unnamed_addr #0 {
  %2 = getelementptr inbounds nuw i8, ptr %0, i64 80
  %3 = load ptr, ptr %2, align 8, !tbaa !45
  %.not = icmp eq ptr %3, null
  br i1 %.not, label %5, label %4

4:                                                ; preds = %1
  tail call void @Aig_ManStop(ptr noundef nonnull %3) #10
  store ptr null, ptr %2, align 8, !tbaa !45
  br label %5

5:                                                ; preds = %4, %1
  %6 = getelementptr inbounds nuw i8, ptr %0, i64 88
  %7 = load ptr, ptr %6, align 8, !tbaa !46
  %.not15 = icmp eq ptr %7, null
  br i1 %.not15, label %9, label %8

8:                                                ; preds = %5
  tail call void @Cnf_DataFree(ptr noundef nonnull %7) #10
  store ptr null, ptr %6, align 8, !tbaa !46
  br label %9

9:                                                ; preds = %8, %5
  %10 = getelementptr inbounds nuw i8, ptr %0, i64 96
  %11 = load ptr, ptr %10, align 8, !tbaa !47
  %.not16 = icmp eq ptr %11, null
  br i1 %.not16, label %13, label %12

12:                                               ; preds = %9
  tail call void @sat_solver_delete(ptr noundef nonnull %11) #10
  store ptr null, ptr %10, align 8, !tbaa !47
  br label %13

13:                                               ; preds = %12, %9
  %14 = getelementptr inbounds nuw i8, ptr %0, i64 104
  %15 = load ptr, ptr %14, align 8, !tbaa !48
  %.not17 = icmp eq ptr %15, null
  br i1 %.not17, label %20, label %16

16:                                               ; preds = %13
  %17 = getelementptr inbounds nuw i8, ptr %15, i64 8
  %18 = load ptr, ptr %17, align 8, !tbaa !38
  %.not.i = icmp eq ptr %18, null
  br i1 %.not.i, label %Vec_PtrFree.exit, label %19

19:                                               ; preds = %16
  tail call void @free(ptr noundef nonnull %18) #10
  br label %Vec_PtrFree.exit

Vec_PtrFree.exit:                                 ; preds = %16, %19
  tail call void @free(ptr noundef nonnull %15) #10
  store ptr null, ptr %14, align 8, !tbaa !48
  br label %20

20:                                               ; preds = %Vec_PtrFree.exit, %13
  ret void
}